target datalayout = "e-m:e-p270:32:32-p271:32:32-p272:64:64-i64:64-i128:128-f80:128-n8:16:32:64-S128"
target triple = "x86_64-pc-linux-gnu"

%struct.SDL_GPUDevice = type { ptr, ptr, ptr, ptr, ptr, ptr, ptr, ptr, ptr, ptr, ptr, ptr, ptr, ptr, ptr, ptr, ptr, ptr, ptr, ptr, ptr, ptr, ptr, ptr, ptr, ptr, ptr, ptr, ptr, ptr, ptr, ptr, ptr, ptr, ptr, ptr, ptr, ptr, ptr, ptr, ptr, ptr, ptr, ptr, ptr, ptr, ptr, ptr, ptr, ptr, ptr, ptr, ptr, ptr, ptr, ptr, ptr, ptr, ptr, ptr, ptr, ptr, ptr, ptr, ptr, ptr, ptr, ptr, ptr, ptr, ptr, ptr, ptr, ptr, ptr, ptr, ptr, ptr, ptr, ptr, ptr, ptr, ptr, ptr, ptr, i32, i8 }
%struct.CommandBufferCommonHeader = type { ptr, %struct.RenderPass, i8, %struct.Pass, i8, %struct.Pass, i8, i8, i8 }
%struct.RenderPass = type { ptr, i8, [4 x ptr], i32, ptr }
%struct.Pass = type { ptr, i8 }

@.str.4 = private unnamed_addr constant [26 x i8] c"Parameter '%s' is invalid\00", align 1
@.str.8 = private unnamed_addr constant [103 x i8] c"generated/home/dtcxzyw/WorkSpace/Projects/compilers/llvm-opt-benchmark/bench/sdl/SDL/src/gpu/SDL_gpu.c\00", align 1
@.str.176 = private unnamed_addr constant [7 x i8] c"buffer\00", align 1
@.str.225 = private unnamed_addr constant [12 x i8] c"render_pass\00", align 1
@SDL_DrawGPUIndexedPrimitivesIndirect_REAL.sdl_assert_data = internal global { i8, [3 x i8], i32, ptr, ptr, i32, [4 x i8], ptr, ptr } { i8 0, [3 x i8] zeroinitializer, i32 0, ptr @.str.229, ptr null, i32 0, [4 x i8] zeroinitializer, ptr null, ptr null }, align 8
@__func__.SDL_DrawGPUIndexedPrimitivesIndirect_REAL = private unnamed_addr constant [42 x i8] c"SDL_DrawGPUIndexedPrimitivesIndirect_REAL\00", align 1
@SDL_DrawGPUIndexedPrimitivesIndirect_REAL.sdl_assert_data.257 = internal global { i8, [3 x i8], i32, ptr, ptr, i32, [4 x i8], ptr, ptr } { i8 0, [3 x i8] zeroinitializer, i32 0, ptr @.str.254, ptr null, i32 0, [4 x i8] zeroinitializer, ptr null, ptr null }, align 8

; Function Attrs: nounwind uwtable
define hidden void @SDL_DrawGPUIndexedPrimitivesIndirect_REAL(ptr noundef %0, ptr noundef %1, i32 noundef %2, i32 noundef %3) #0 {
  %5 = alloca ptr, align 8
  %6 = alloca ptr, align 8
  %7 = alloca i32, align 4
  %8 = alloca i32, align 4
  %9 = alloca i32, align 4
  %10 = alloca i32, align 4
  %11 = alloca i32, align 4
  store ptr %0, ptr %5, align 8
  store ptr %1, ptr %6, align 8
  store i32 %2, ptr %7, align 4
  store i32 %3, ptr %8, align 4
  %12 = load ptr, ptr %5, align 8
  %13 = icmp eq ptr %12, null
  br i1 %13, label %14, label %16

14:                                               ; preds = %4
  %15 = call zeroext i1 (ptr, ...) @SDL_SetError_REAL(ptr noundef @.str.4, ptr noundef @.str.225)
  br label %91

16:                                               ; preds = %4
  %17 = load ptr, ptr %6, align 8
  %18 = icmp eq ptr %17, null
  br i1 %18, label %19, label %21

19:                                               ; preds = %16
  %20 = call zeroext i1 (ptr, ...) @SDL_SetError_REAL(ptr noundef @.str.4, ptr noundef @.str.176)
  br label %91

21:                                               ; preds = %16
  %22 = load ptr, ptr %5, align 8
  %23 = getelementptr inbounds nuw %struct.RenderPass, ptr %22, i32 0, i32 0
  %24 = load ptr, ptr %23, align 8
  %25 = getelementptr inbounds nuw %struct.CommandBufferCommonHeader, ptr %24, i32 0, i32 0
  %26 = load ptr, ptr %25, align 8
  %27 = getelementptr inbounds nuw %struct.SDL_GPUDevice, ptr %26, i32 0, i32 86
  %28 = load i8, ptr %27, align 4, !range !5, !noundef !6
  %29 = trunc i8 %28 to i1
  br i1 %29, label %30, label %77

30:                                               ; preds = %21
  %31 = load ptr, ptr %5, align 8
  %32 = getelementptr inbounds nuw %struct.RenderPass, ptr %31, i32 0, i32 1
  %33 = load i8, ptr %32, align 8, !range !5, !noundef !6
  %34 = trunc i8 %33 to i1
  br i1 %34, label %52, label %35

35:                                               ; preds = %30
  br label %36

36:                                               ; preds = %35
  br label %37

37:                                               ; preds = %36, %48
  call void @llvm.lifetime.start.p0(i64 4, ptr %9) #6
  %38 = call i32 @SDL_ReportAssertion_REAL(ptr noundef @SDL_DrawGPUIndexedPrimitivesIndirect_REAL.sdl_assert_data, ptr noundef @__func__.SDL_DrawGPUIndexedPrimitivesIndirect_REAL, ptr noundef @.str.8, i32 noundef 2111)
  store i32 %38, ptr %9, align 4
  %39 = load i32, ptr %9, align 4
  %40 = icmp eq i32 %39, 0
  br i1 %40, label %41, label %42

41:                                               ; preds = %37
  store i32 4, ptr %10, align 4
  br label %48

42:                                               ; preds = %37
  %43 = load i32, ptr %9, align 4
  %44 = icmp eq i32 %43, 1
  br i1 %44, label %45, label %46

45:                                               ; preds = %42
  call void @llvm.debugtrap()
  br label %46

46:                                               ; preds = %45, %42
  br label %47

47:                                               ; preds = %46
  store i32 5, ptr %10, align 4
  br label %48

48:                                               ; preds = %47, %41
  call void @llvm.lifetime.end.p0(i64 4, ptr %9) #6
  %49 = load i32, ptr %10, align 4
  switch i32 %49, label %92 [
    i32 4, label %37
    i32 5, label %50
  ]

50:                                               ; preds = %48
  br label %51

51:                                               ; preds = %50
  br label %91

52:                                               ; preds = %30
  %53 = load ptr, ptr %5, align 8
  %54 = getelementptr inbounds nuw %struct.RenderPass, ptr %53, i32 0, i32 0
  %55 = load ptr, ptr %54, align 8
  %56 = getelementptr inbounds nuw %struct.CommandBufferCommonHeader, ptr %55, i32 0, i32 2
  %57 = load i8, ptr %56, align 8, !range !5, !noundef !6
  %58 = trunc i8 %57 to i1
  br i1 %58, label %76, label %59

59:                                               ; preds = %52
  br label %60

60:                                               ; preds = %59
  br label %61

61:                                               ; preds = %60, %72
  call void @llvm.lifetime.start.p0(i64 4, ptr %11) #6
  %62 = call i32 @SDL_ReportAssertion_REAL(ptr noundef @SDL_DrawGPUIndexedPrimitivesIndirect_REAL.sdl_assert_data.257, ptr noundef @__func__.SDL_DrawGPUIndexedPrimitivesIndirect_REAL, ptr noundef @.str.8, i32 noundef 2112)
  store i32 %62, ptr %11, align 4
  %63 = load i32, ptr %11, align 4
  %64 = icmp eq i32 %63, 0
  br i1 %64, label %65, label %66

65:                                               ; preds = %61
  store i32 8, ptr %10, align 4
  br label %72

66:                                               ; preds = %61
  %67 = load i32, ptr %11, align 4
  %68 = icmp eq i32 %67, 1
  br i1 %68, label %69, label %70

69:                                               ; preds = %66
  call void @llvm.debugtrap()
  br label %70

70:                                               ; preds = %69, %66
  br label %71

71:                                               ; preds = %70
  store i32 9, ptr %10, align 4
  br label %72

72:                                               ; preds = %71, %65
  call void @llvm.lifetime.end.p0(i64 4, ptr %11) #6
  %73 = load i32, ptr %10, align 4
  switch i32 %73, label %92 [
    i32 8, label %61
    i32 9, label %74
  ]

74:                                               ; preds = %72
  br label %75

75:                                               ; preds = %74
  br label %91

76:                                               ; preds = %52
  br label %77

77:                                               ; preds = %76, %21
  %78 = load ptr, ptr %5, align 8
  %79 = getelementptr inbounds nuw %struct.RenderPass, ptr %78, i32 0, i32 0
  %80 = load ptr, ptr %79, align 8
  %81 = getelementptr inbounds nuw %struct.CommandBufferCommonHeader, ptr %80, i32 0, i32 0
  %82 = load ptr, ptr %81, align 8
  %83 = getelementptr inbounds nuw %struct.SDL_GPUDevice, ptr %82, i32 0, i32 40
  %84 = load ptr, ptr %83, align 8
  %85 = load ptr, ptr %5, align 8
  %86 = getelementptr inbounds nuw %struct.RenderPass, ptr %85, i32 0, i32 0
  %87 = load ptr, ptr %86, align 8
  %88 = load ptr, ptr %6, align 8
  %89 = load i32, ptr %7, align 4
  %90 = load i32, ptr %8, align 4
  call void %84(ptr noundef %87, ptr noundef %88, i32 noundef %89, i32 noundef %90)
  br label %91

91:                                               ; preds = %77, %75, %51, %19, %14
  ret void

92:                                               ; preds = %72, %48
  unreachable
}